; Function Attrs: nounwind sspstrong uwtable
define internal fastcc void @plugin_gen_mem_callbacks(ptr noundef %0, ptr noundef %1, i32 noundef %2, i32 noundef range(i32 1, 3) %3) unnamed_addr #0 {
  %5 = tail call align 8 ptr @llvm.threadlocal.address.p0(ptr align 8 @tcg_ctx)
  %6 = load ptr, ptr %5, align 8
  %7 = getelementptr inbounds nuw i8, ptr %6, i64 232
  %8 = load ptr, ptr %7, align 8
  %.not = icmp eq ptr %8, null
  br i1 %.not, label %31, label %9

9:                                                ; preds = %4
  %10 = shl nuw nsw i32 %3, 16
  %11 = or i32 %10, %2
  %12 = getelementptr inbounds nuw i8, ptr %6, i64 60
  %13 = load i32, ptr %12, align 4
  %14 = icmp eq i32 %13, 0
  %.not15 = icmp eq ptr %0, null
  br i1 %14, label %15, label %24

15:                                               ; preds = %9
  br i1 %.not15, label %16, label %23

16:                                               ; preds = %15
  %17 = tail call ptr @tcg_temp_ebb_new_i64() #6
  %18 = load ptr, ptr %5, align 8
  %19 = ptrtoint ptr %1 to i64
  %20 = ptrtoint ptr %18 to i64
  %21 = sub i64 %19, %20
  %22 = inttoptr i64 %21 to ptr
  tail call void @tcg_gen_extu_i32_i64(ptr noundef %17, ptr noundef %22) #6
  br label %23

23:                                               ; preds = %16, %15
  %.0 = phi ptr [ %0, %15 ], [ %17, %16 ]
  tail call void @tcg_gen_plugin_mem_cb(ptr noundef %.0, i32 noundef %11) #6
  tail call void @tcg_temp_free_i64(ptr noundef %.0) #6
  br label %31

24:                                               ; preds = %9
  br i1 %.not15, label %26, label %25

25:                                               ; preds = %24
  tail call void @tcg_gen_plugin_mem_cb(ptr noundef nonnull %0, i32 noundef %11) #6
  tail call void @tcg_temp_free_i64(ptr noundef nonnull %0) #6
  br label %31

26:                                               ; preds = %24
  %27 = ptrtoint ptr %1 to i64
  %28 = ptrtoint ptr %6 to i64
  %29 = sub i64 %27, %28
  %30 = inttoptr i64 %29 to ptr
  tail call void @tcg_gen_plugin_mem_cb(ptr noundef %30, i32 noundef %11) #6
  br label %31

31:                                               ; preds = %23, %26, %25, %4
  ret void
}